Certificate:
    Data:
        Version: 3 (0x2)
        Serial Number:
            bc:05:53:f8:ae:7c:c3:4f
        Signature Algorithm: sha1WithRSAEncryption
        Issuer: C=JP, ST=Tokyo, O=topecongiro.com, CN=sv01.topecongiro.com/emailAddress=postmaster@topecongiro.com
        Validity
            Not Before: Feb 25 08:36:29 2013 GMT
            Not After : Feb 23 08:36:29 2023 GMT
        Subject: C=JP, ST=Tokyo, O=topecongiro.com, CN=sv01.topecongiro.com/emailAddress=postmaster@topecongiro.com
        Subject Public Key Info:
            Public Key Algorithm: rsaEncryption
                Public-Key: (2048 bit)
                Modulus:
                    00:97:2c:c5:02:c9:44:f5:18:8e:26:c1:58:f1:ee:
                    84:c6:c2:e1:2e:70:0f:ff:ea:74:69:77:60:41:90:
                    31:ad:ed:cf:7a:30:cf:6a:3f:b7:f6:77:ec:35:8e:
                    7f:9d:0a:42:f2:6a:d2:cb:79:75:19:ad:10:44:6a:
                    ee:b0:87:f8:f2:1e:6e:64:d0:b7:ab:2d:8c:8b:48:
                    0b:71:66:78:e8:5c:e7:28:f1:d1:09:08:24:02:d2:
                    6f:4f:36:a6:42:97:0b:0e:8b:ad:0a:fe:ab:9e:77:
                    ce:ef:3f:3f:4d:87:dd:d3:d9:3a:60:21:97:84:88:
                    05:4e:f0:39:0d:b0:47:24:b7:5c:59:bf:e5:0e:2b:
                    fa:02:66:49:97:80:3b:cb:8f:d0:20:1e:46:dd:59:
                    4c:e7:82:56:b7:d6:10:b1:9a:eb:56:04:e1:ec:e3:
                    a6:04:47:4f:08:6a:47:4f:41:78:54:ba:ef:d5:d6:
                    06:bf:09:b6:e9:87:2c:94:5a:f7:12:f9:dc:7f:e5:
                    ba:f5:f6:e3:a6:82:a1:40:a5:13:03:a2:45:3e:85:
                    aa:22:96:e4:1a:27:dc:67:1a:a5:e4:45:0e:88:8e:
                    f5:34:f3:2a:84:75:be:24:1d:f6:e0:1f:20:26:54:
                    1b:8b:74:a0:f4:5e:b6:8f:ec:50:c1:58:bb:a5:30:
                    bd:3b
                Exponent: 65537 (0x10001)
        X509v3 extensions:
            X509v3 Subject Key Identifier: 
                24:6F:E4:23:4D:E4:96:04:A4:9A:49:1E:55:E6:47:A6:84:50:A2:5E
            X509v3 Authority Key Identifier: 
                keyid:24:6F:E4:23:4D:E4:96:04:A4:9A:49:1E:55:E6:47:A6:84:50:A2:5E

            X509v3 Basic Constraints: 
                CA:TRUE
            Netscape Cert Type: 
                SSL CA, S/MIME CA
    Signature Algorithm: sha1WithRSAEncryption
        41:d4:cd:0b:07:a7:8c:2d:dd:5d:74:49:01:6e:e9:d9:6a:dc:
        7b:dc:8b:04:89:84:aa:8e:63:53:cd:3f:7f:38:71:44:09:a6:
        a2:16:d3:36:52:44:21:b8:78:ea:b9:b8:e6:13:12:f6:74:a4:
        3a:c3:7e:32:7c:f6:5d:ae:3e:19:d7:17:34:78:37:58:99:03:
        3f:9b:b5:97:76:17:bb:c2:c2:af:e8:71:8e:d8:78:93:21:c0:
        44:cd:81:9c:d5:f1:97:c1:3b:8b:ee:47:d0:e6:1f:04:83:9a:
        30:dc:ef:5a:ea:21:b2:38:88:c9:08:11:b9:57:ba:88:d5:86:
        d2:ba:7c:61:9b:90:21:7b:52:50:77:05:2e:f0:c6:12:6a:9b:
        46:bc:b9:01:1e:ed:8d:e4:42:5f:bd:e7:d5:e0:bd:c1:24:c4:
        d9:d4:92:62:1d:2b:b9:b5:c0:62:14:35:8a:bc:1f:ba:72:31:
        8e:17:98:44:57:5b:8c:09:d7:62:86:3c:bd:1f:e1:bd:4c:1f:
        d6:d7:e5:c3:33:c7:1f:d4:c9:d4:c5:16:df:dd:22:21:c1:25:
        c6:41:4c:ae:fd:3a:5b:93:71:6b:0a:c1:d8:0a:68:96:b2:70:
        45:71:a5:03:59:95:5b:09:a3:42:f2:cd:50:35:18:2a:87:04:
        ad:24:14:0c
-----BEGIN CERTIFICATE-----
MIID6jCCAtKgAwIBAgIJALwFU/iufMNPMA0GCSqGSIb3DQEBBQUAMIGBMQswCQYD
VQQGEwJKUDEOMAwGA1UECAwFVG9reW8xGDAWBgNVBAoMD3RvcGVjb25naXJvLmNv
bTEdMBsGA1UEAwwUc3YwMS50b3BlY29uZ2lyby5jb20xKTAnBgkqhkiG9w0BCQEW
GnBvc3RtYXN0ZXJAdG9wZWNvbmdpcm8uY29tMB4XDTEzMDIyNTA4MzYyOVoXDTIz
MDIyMzA4MzYyOVowgYExCzAJBgNVBAYTAkpQMQ4wDAYDVQQIDAVUb2t5bzEYMBYG
A1UECgwPdG9wZWNvbmdpcm8uY29tMR0wGwYDVQQDDBRzdjAxLnRvcGVjb25naXJv
LmNvbTEpMCcGCSqGSIb3DQEJARYacG9zdG1hc3RlckB0b3BlY29uZ2lyby5jb20w
ggEiMA0GCSqGSIb3DQEBAQUAA4IBDwAwggEKAoIBAQCXLMUCyUT1GI4mwVjx7oTG
wuEucA//6nRpd2BBkDGt7c96MM9qP7f2d+w1jn+dCkLyatLLeXUZrRBEau6wh/jy
Hm5k0LerLYyLSAtxZnjoXOco8dEJCCQC0m9PNqZClwsOi60K/qued87vPz9Nh93T
2TpgIZeEiAVO8DkNsEckt1xZv+UOK/oCZkmXgDvLj9AgHkbdWUzngla31hCxmutW
BOHs46YER08IakdPQXhUuu/V1ga/CbbphyyUWvcS+dx/5br19uOmgqFApRMDokU+
haoiluQaJ9xnGqXkRQ6IjvU08yqEdb4kHfbgHyAmVBuLdKD0XraP7FDBWLulML07
AgMBAAGjYzBhMB0GA1UdDgQWBBQkb+QjTeSWBKSaSR5V5kemhFCiXjAfBgNVHSME
GDAWgBQkb+QjTeSWBKSaSR5V5kemhFCiXjAMBgNVHRMEBTADAQH/MBEGCWCGSAGG
+EIBAQQEAwIBBjANBgkqhkiG9w0BAQUFAAOCAQEAQdTNCwenjC3dXXRJAW7p2Wrc
e9yLBImEqo5jU80/fzhxRAmmohbTNlJEIbh46rm45hMS9nSkOsN+Mnz2Xa4+GdcX
NHg3WJkDP5u1l3YXu8LCr+hxjth4kyHARM2BnNXxl8E7i+5H0OYfBIOaMNzvWuoh
sjiIyQgRuVe6iNWG0rp8YZuQIXtSUHcFLvDGEmqbRry5AR7tjeRCX73n1eC9wSTE
2dSSYh0rubXAYhQ1irwfunIxjheYRFdbjAnXYoY8vR/hvUwf1tflwzPHH9TJ1MUW
390iIcElxkFMrv06W5NxawrB2ApolrJwRXGlA1mVWwmjQvLNUDUYKocErSQUDA==
-----END CERTIFICATE-----
