Certificate:
    Data:
        Version: 3 (0x2)
        Serial Number:
            bc:05:53:f8:ae:7c:c3:50
        Signature Algorithm: sha1WithRSAEncryption
        Issuer: C=JP, ST=Tokyo, O=topecongiro.com, CN=sv01.topecongiro.com/emailAddress=postmaster@topecongiro.com
        Validity
            Not Before: Feb 25 08:44:30 2013 GMT
            Not After : Feb 25 08:44:30 2015 GMT
        Subject: C=JP, ST=Tokyo, L=Suginami, O=topecongiro.com, CN=sv01.topecongiro.com/emailAddress=postmaster@topecongiro.com
        Subject Public Key Info:
            Public Key Algorithm: rsaEncryption
                Public-Key: (2048 bit)
                Modulus:
                    00:b5:6f:b7:c6:6a:ad:28:3a:a7:b0:13:b9:6c:8c:
                    67:90:6a:9e:73:98:20:2d:b3:42:9b:7d:13:0f:cd:
                    0c:28:24:5f:cb:7a:23:33:af:df:c0:46:6f:53:f6:
                    0c:6a:14:a6:14:2b:4c:aa:89:b8:39:d5:ed:d6:2a:
                    40:09:ff:80:4f:a0:3c:9d:0e:e3:f0:45:c1:e8:24:
                    a5:6c:0c:0e:4c:f8:90:35:3e:5a:f6:22:da:65:2a:
                    11:2b:39:c6:52:35:21:88:e9:71:82:0b:78:c5:0a:
                    24:72:f2:be:ea:49:f2:df:dd:f3:3d:0d:e1:0f:e4:
                    e7:20:0f:67:e2:59:a0:ca:5b:a3:6a:66:f9:b0:65:
                    c6:f0:ee:e6:c7:56:50:15:64:92:4f:28:81:f9:a8:
                    f3:d5:25:be:46:d4:56:6d:ff:e2:bd:e3:21:a1:71:
                    54:27:44:12:0d:37:a9:88:f7:2c:61:9d:28:af:2c:
                    d6:2d:a1:5c:92:82:66:47:2e:6d:e9:c5:4d:1d:0f:
                    c6:06:cb:d0:18:74:48:d8:30:1c:b6:61:43:bc:e9:
                    43:35:71:74:a5:e5:91:dd:83:e0:94:5b:a1:e7:aa:
                    ae:bc:bf:ef:90:53:f6:52:89:d8:d8:28:16:b1:5c:
                    85:ed:6d:14:19:98:1c:4f:96:51:4f:05:fb:f6:ba:
                    ab:cf
                Exponent: 65537 (0x10001)
        X509v3 extensions:
            X509v3 Basic Constraints: 
                CA:FALSE
            Netscape Cert Type: 
                SSL Server
            Netscape Comment: 
                OpenSSL Generated Certificate
            X509v3 Subject Key Identifier: 
                FB:39:96:7D:33:02:FE:18:57:79:FB:DD:35:1B:F5:DC:EA:A0:C6:94
            X509v3 Authority Key Identifier: 
                keyid:24:6F:E4:23:4D:E4:96:04:A4:9A:49:1E:55:E6:47:A6:84:50:A2:5E

    Signature Algorithm: sha1WithRSAEncryption
        0a:2f:1c:08:60:1a:bc:4a:2f:8a:e9:49:6a:d5:e6:15:b5:78:
        15:f9:1d:26:2f:20:2e:23:5c:13:53:83:46:67:af:b2:58:75:
        c6:9e:0c:4e:ee:63:c2:eb:08:7c:fe:b9:25:21:d9:a4:6f:9b:
        57:ff:5a:bd:1c:93:c7:f3:36:3f:f7:c5:d6:bc:5e:17:55:7c:
        35:0c:2e:06:5a:ba:01:49:b5:c1:05:11:70:c6:1e:c5:81:48:
        2d:f6:1c:f0:8d:9f:2b:df:07:f4:59:5e:84:38:95:7a:7f:a8:
        33:91:3e:7c:b4:99:80:a0:1c:25:4d:26:33:d2:b8:b8:63:55:
        ac:2f:dc:f0:26:f8:79:1e:91:98:23:69:b3:b1:96:5d:22:52:
        fd:47:35:06:0d:2a:41:eb:32:0e:b3:1c:d6:9d:38:89:ba:ec:
        e2:97:b4:ef:f7:a4:9c:9a:83:f9:0b:29:1d:90:aa:20:2a:5d:
        f6:3a:16:5d:83:3b:cd:0b:b7:64:08:5a:65:a5:1d:26:33:68:
        b0:97:04:2f:8b:19:14:0c:a9:80:c9:b5:7e:64:ed:27:3f:c9:
        77:7f:54:8e:c1:04:34:40:ae:89:8b:b1:fc:1e:1d:fc:63:ff:
        89:16:00:10:23:68:62:5a:2d:14:ff:10:b8:65:62:e3:c8:01:
        c4:f7:a3:24
-----BEGIN CERTIFICATE-----
MIIEKjCCAxKgAwIBAgIJALwFU/iufMNQMA0GCSqGSIb3DQEBBQUAMIGBMQswCQYD
VQQGEwJKUDEOMAwGA1UECAwFVG9reW8xGDAWBgNVBAoMD3RvcGVjb25naXJvLmNv
bTEdMBsGA1UEAwwUc3YwMS50b3BlY29uZ2lyby5jb20xKTAnBgkqhkiG9w0BCQEW
GnBvc3RtYXN0ZXJAdG9wZWNvbmdpcm8uY29tMB4XDTEzMDIyNTA4NDQzMFoXDTE1
MDIyNTA4NDQzMFowgZQxCzAJBgNVBAYTAkpQMQ4wDAYDVQQIDAVUb2t5bzERMA8G
A1UEBwwIU3VnaW5hbWkxGDAWBgNVBAoMD3RvcGVjb25naXJvLmNvbTEdMBsGA1UE
AwwUc3YwMS50b3BlY29uZ2lyby5jb20xKTAnBgkqhkiG9w0BCQEWGnBvc3RtYXN0
ZXJAdG9wZWNvbmdpcm8uY29tMIIBIjANBgkqhkiG9w0BAQEFAAOCAQ8AMIIBCgKC
AQEAtW+3xmqtKDqnsBO5bIxnkGqec5ggLbNCm30TD80MKCRfy3ojM6/fwEZvU/YM
ahSmFCtMqom4OdXt1ipACf+AT6A8nQ7j8EXB6CSlbAwOTPiQNT5a9iLaZSoRKznG
UjUhiOlxggt4xQokcvK+6kny393zPQ3hD+TnIA9n4lmgylujamb5sGXG8O7mx1ZQ
FWSSTyiB+ajz1SW+RtRWbf/iveMhoXFUJ0QSDTepiPcsYZ0oryzWLaFckoJmRy5t
6cVNHQ/GBsvQGHRI2DActmFDvOlDNXF0peWR3YPglFuh56quvL/vkFP2UonY2CgW
sVyF7W0UGZgcT5ZRTwX79rqrzwIDAQABo4GPMIGMMAkGA1UdEwQCMAAwEQYJYIZI
AYb4QgEBBAQDAgZAMCwGCWCGSAGG+EIBDQQfFh1PcGVuU1NMIEdlbmVyYXRlZCBD
ZXJ0aWZpY2F0ZTAdBgNVHQ4EFgQU+zmWfTMC/hhXefvdNRv13OqgxpQwHwYDVR0j
BBgwFoAUJG/kI03klgSkmkkeVeZHpoRQol4wDQYJKoZIhvcNAQEFBQADggEBAAov
HAhgGrxKL4rpSWrV5hW1eBX5HSYvIC4jXBNTg0Znr7JYdcaeDE7uY8LrCHz+uSUh
2aRvm1f/Wr0ck8fzNj/3xda8XhdVfDUMLgZaugFJtcEFEXDGHsWBSC32HPCNnyvf
B/RZXoQ4lXp/qDORPny0mYCgHCVNJjPSuLhjVawv3PAm+HkekZgjabOxll0iUv1H
NQYNKkHrMg6zHNadOIm67OKXtO/3pJyag/kLKR2QqiAqXfY6Fl2DO80Lt2QIWmWl
HSYzaLCXBC+LGRQMqYDJtX5k7Sc/yXd/VI7BBDRAromLsfweHfxj/4kWABAjaGJa
LRT/ELhlYuPIAcT3oyQ=
-----END CERTIFICATE-----
